target datalayout = "e-m:e-p270:32:32-p271:32:32-p272:64:64-i64:64-i128:128-f80:128-n8:16:32:64-S128"
target triple = "x86_64-pc-linux-gnu"

%struct.lxb_dom_node = type { %struct.lxb_dom_event_target, i64, i64, i64, ptr, ptr, ptr, ptr, ptr, ptr, ptr, i32, i64 }
%struct.lxb_dom_event_target = type { ptr }

; Function Attrs: nounwind uwtable
define internal zeroext i1 @lxb_selectors_pseudo_class_disabled(ptr noundef %0) #0 {
  %2 = alloca i1, align 1
  %3 = alloca ptr, align 8
  %4 = alloca ptr, align 8
  %5 = alloca i64, align 8
  store ptr %0, ptr %3, align 8
  %6 = load ptr, ptr %3, align 8
  %7 = getelementptr inbounds %struct.lxb_dom_node, ptr %6, i32 0, i32 1
  %8 = load i64, ptr %7, align 8
  store i64 %8, ptr %5, align 8
  %9 = load ptr, ptr %3, align 8
  %10 = call ptr @lxb_dom_element_attr_by_id(ptr noundef %9, i64 noundef 9)
  store ptr %10, ptr %4, align 8
  %11 = load ptr, ptr %4, align 8
  %12 = icmp eq ptr %11, null
  br i1 %12, label %13, label %14

13:                                               ; preds = %1
  store i1 false, ptr %2, align 1
  br label %55

14:                                               ; preds = %1
  %15 = load i64, ptr %5, align 8
  %16 = icmp eq i64 %15, 33
  br i1 %16, label %29, label %17

17:                                               ; preds = %14
  %18 = load i64, ptr %5, align 8
  %19 = icmp eq i64 %18, 106
  br i1 %19, label %29, label %20

20:                                               ; preds = %17
  %21 = load i64, ptr %5, align 8
  %22 = icmp eq i64 %21, 163
  br i1 %22, label %29, label %23

23:                                               ; preds = %20
  %24 = load i64, ptr %5, align 8
  %25 = icmp eq i64 %24, 180
  br i1 %25, label %29, label %26

26:                                               ; preds = %23
  %27 = load i64, ptr %5, align 8
  %28 = icmp uge i64 %27, 196
  br i1 %28, label %29, label %30

29:                                               ; preds = %26, %23, %20, %17, %14
  store i1 true, ptr %2, align 1
  br label %55

30:                                               ; preds = %26
  %31 = load ptr, ptr %3, align 8
  %32 = getelementptr inbounds %struct.lxb_dom_node, ptr %31, i32 0, i32 7
  %33 = load ptr, ptr %32, align 8
  store ptr %33, ptr %3, align 8
  br label %34

34:                                               ; preds = %50, %30
  %35 = load ptr, ptr %3, align 8
  %36 = icmp ne ptr %35, null
  br i1 %36, label %37, label %54

37:                                               ; preds = %34
  %38 = load ptr, ptr %3, align 8
  %39 = getelementptr inbounds %struct.lxb_dom_node, ptr %38, i32 0, i32 1
  %40 = load i64, ptr %39, align 8
  %41 = icmp eq i64 %40, 81
  br i1 %41, label %42, label %50

42:                                               ; preds = %37
  %43 = load ptr, ptr %3, align 8
  %44 = getelementptr inbounds %struct.lxb_dom_node, ptr %43, i32 0, i32 8
  %45 = load ptr, ptr %44, align 8
  %46 = getelementptr inbounds %struct.lxb_dom_node, ptr %45, i32 0, i32 1
  %47 = load i64, ptr %46, align 8
  %48 = icmp ne i64 %47, 112
  br i1 %48, label %49, label %50

49:                                               ; preds = %42
  store i1 true, ptr %2, align 1
  br label %55

50:                                               ; preds = %42, %37
  %51 = load ptr, ptr %3, align 8
  %52 = getelementptr inbounds %struct.lxb_dom_node, ptr %51, i32 0, i32 7
  %53 = load ptr, ptr %52, align 8
  store ptr %53, ptr %3, align 8
  br label %34

54:                                               ; preds = %34
  store i1 false, ptr %2, align 1
  br label %55

55:                                               ; preds = %54, %49, %29, %13
  %56 = load i1, ptr %2, align 1
  ret i1 %56
}

; Function Attrs: nounwind uwtable
define internal zeroext i1 @lxb_selectors_pseudo_class_read_write(ptr noundef %0) #0 {
  %2 = alloca i1, align 1
  %3 = alloca ptr, align 8
  %4 = alloca ptr, align 8
  store ptr %0, ptr %3, align 8
  %5 = load ptr, ptr %3, align 8
  %6 = getelementptr inbounds %struct.lxb_dom_node, ptr %5, i32 0, i32 1
  %7 = load i64, ptr %6, align 8
  %8 = icmp eq i64 %7, 106
  br i1 %8, label %14, label %9

9:                                                ; preds = %1
  %10 = load ptr, ptr %3, align 8
  %11 = getelementptr inbounds %struct.lxb_dom_node, ptr %10, i32 0, i32 1
  %12 = load i64, ptr %11, align 8
  %13 = icmp eq i64 %12, 180
  br i1 %13, label %14, label %24

14:                                               ; preds = %9, %1
  %15 = load ptr, ptr %3, align 8
  %16 = call ptr @lxb_dom_element_attr_by_id(ptr noundef %15, i64 noundef 24)
  store ptr %16, ptr %4, align 8
  %17 = load ptr, ptr %4, align 8
  %18 = icmp ne ptr %17, null
  br i1 %18, label %19, label %20

19:                                               ; preds = %14
  store i1 false, ptr %2, align 1
  br label %25

20:                                               ; preds = %14
  %21 = load ptr, ptr %3, align 8
  %22 = call zeroext i1 @lxb_selectors_pseudo_class_disabled(ptr noundef %21)
  %23 = xor i1 %22, true
  store i1 %23, ptr %2, align 1
  br label %25

24:                                               ; preds = %9
  store i1 false, ptr %2, align 1
  br label %25

25:                                               ; preds = %24, %20, %19
  %26 = load i1, ptr %2, align 1
  ret i1 %26
}