; Function Attrs: nounwind uwtable
define internal fastcc noundef zeroext i1 @lxb_selectors_pseudo_class_read_write(ptr noundef %0) unnamed_addr #0 {
  %2 = getelementptr inbounds i8, ptr %0, i64 8
  %3 = load i64, ptr %2, align 8
  switch i64 %3, label %lxb_selectors_pseudo_class_disabled.exit [
    i64 106, label %4
    i64 180, label %4
  ]

4:                                                ; preds = %1, %1
  %5 = tail call ptr @lxb_dom_element_attr_by_id(ptr noundef nonnull %0, i64 noundef 24) #6
  %.not = icmp eq ptr %5, null
  br i1 %.not, label %6, label %lxb_selectors_pseudo_class_disabled.exit

6:                                                ; preds = %4
  %7 = load i64, ptr %2, align 8
  %.fr.i = freeze i64 %7
  %8 = tail call ptr @lxb_dom_element_attr_by_id(ptr noundef nonnull %0, i64 noundef 9) #6
  %9 = icmp eq ptr %8, null
  br i1 %9, label %lxb_selectors_pseudo_class_disabled.exit, label %10

10:                                               ; preds = %6
  %11 = icmp ugt i64 %.fr.i, 195
  br i1 %11, label %lxb_selectors_pseudo_class_disabled.exit, label %switch.early.test.i

switch.early.test.i:                              ; preds = %10
  %trunc.i = trunc i64 %.fr.i to i8
  switch i8 %trunc.i, label %.preheader.i [
    i8 -76, label %lxb_selectors_pseudo_class_disabled.exit
    i8 -93, label %lxb_selectors_pseudo_class_disabled.exit
    i8 106, label %lxb_selectors_pseudo_class_disabled.exit
    i8 33, label %lxb_selectors_pseudo_class_disabled.exit
  ]

.preheader.i:                                     ; preds = %switch.early.test.i
  %.020.in22.i = getelementptr inbounds i8, ptr %0, i64 56
  %.02023.i = load ptr, ptr %.020.in22.i, align 8
  %.not24.i = icmp eq ptr %.02023.i, null
  br i1 %.not24.i, label %lxb_selectors_pseudo_class_disabled.exit, label %.lr.ph.i

.lr.ph.i:                                         ; preds = %.preheader.i, %20
  %.02025.i = phi ptr [ %.020.i, %20 ], [ %.02023.i, %.preheader.i ]
  %12 = getelementptr inbounds i8, ptr %.02025.i, i64 8
  %13 = load i64, ptr %12, align 8
  %14 = icmp eq i64 %13, 81
  br i1 %14, label %15, label %20

15:                                               ; preds = %.lr.ph.i
  %16 = getelementptr inbounds i8, ptr %.02025.i, i64 64
  %17 = load ptr, ptr %16, align 8
  %18 = getelementptr inbounds i8, ptr %17, i64 8
  %19 = load i64, ptr %18, align 8
  %.not21.i = icmp eq i64 %19, 112
  br i1 %.not21.i, label %20, label %lxb_selectors_pseudo_class_disabled.exit

20:                                               ; preds = %15, %.lr.ph.i
  %.020.in.i = getelementptr inbounds i8, ptr %.02025.i, i64 56
  %.020.i = load ptr, ptr %.020.in.i, align 8
  %.not.i = icmp eq ptr %.020.i, null
  br i1 %.not.i, label %lxb_selectors_pseudo_class_disabled.exit, label %.lr.ph.i

lxb_selectors_pseudo_class_disabled.exit:         ; preds = %20, %15, %.preheader.i, %switch.early.test.i, %switch.early.test.i, %switch.early.test.i, %switch.early.test.i, %10, %6, %1, %4
  %.0 = phi i1 [ false, %4 ], [ false, %1 ], [ true, %6 ], [ false, %switch.early.test.i ], [ false, %switch.early.test.i ], [ false, %switch.early.test.i ], [ false, %switch.early.test.i ], [ false, %10 ], [ true, %.preheader.i ], [ true, %20 ], [ false, %15 ]
  ret i1 %.0
}